target datalayout = "e-m:e-p270:32:32-p271:32:32-p272:64:64-i64:64-i128:128-f80:128-n8:16:32:64-S128"
target triple = "x86_64-pc-linux-gnu"

%struct.ReferrerData = type { i32, i32, i64, i64, i8, i32 }

; Function Attrs: nounwind uwtable
define internal i32 @cbObjectTagReferrer(i32 noundef %0, ptr noundef %1, i64 noundef %2, i64 noundef %3, i64 noundef %4, ptr noundef %5, ptr noundef %6, i32 noundef %7, ptr noundef %8) #0 {
  %10 = alloca i32, align 4
  %11 = alloca i32, align 4
  %12 = alloca ptr, align 8
  %13 = alloca i64, align 8
  %14 = alloca i64, align 8
  %15 = alloca i64, align 8
  %16 = alloca ptr, align 8
  %17 = alloca ptr, align 8
  %18 = alloca i32, align 4
  %19 = alloca ptr, align 8
  %20 = alloca ptr, align 8
  store i32 %0, ptr %11, align 4
  store ptr %1, ptr %12, align 8
  store i64 %2, ptr %13, align 8
  store i64 %3, ptr %14, align 8
  store i64 %4, ptr %15, align 8
  store ptr %5, ptr %16, align 8
  store ptr %6, ptr %17, align 8
  store i32 %7, ptr %18, align 4
  store ptr %8, ptr %19, align 8
  %21 = load ptr, ptr %19, align 8
  store ptr %21, ptr %20, align 8
  %22 = load ptr, ptr %20, align 8
  %23 = icmp eq ptr %22, null
  br i1 %23, label %24, label %25

24:                                               ; preds = %9
  store i32 32768, ptr %10, align 4
  br label %83

25:                                               ; preds = %9
  %26 = load ptr, ptr %20, align 8
  %27 = getelementptr inbounds %struct.ReferrerData, ptr %26, i32 0, i32 1
  %28 = load i32, ptr %27, align 4
  %29 = icmp ne i32 %28, 0
  br i1 %29, label %30, label %39

30:                                               ; preds = %25
  %31 = load ptr, ptr %20, align 8
  %32 = getelementptr inbounds %struct.ReferrerData, ptr %31, i32 0, i32 0
  %33 = load i32, ptr %32, align 8
  %34 = load ptr, ptr %20, align 8
  %35 = getelementptr inbounds %struct.ReferrerData, ptr %34, i32 0, i32 1
  %36 = load i32, ptr %35, align 4
  %37 = icmp sge i32 %33, %36
  br i1 %37, label %38, label %39

38:                                               ; preds = %30
  store i32 32768, ptr %10, align 4
  br label %83

39:                                               ; preds = %30, %25
  %40 = load ptr, ptr %16, align 8
  %41 = load i64, ptr %40, align 8
  %42 = load ptr, ptr %20, align 8
  %43 = getelementptr inbounds %struct.ReferrerData, ptr %42, i32 0, i32 3
  %44 = load i64, ptr %43, align 8
  %45 = icmp ne i64 %41, %44
  br i1 %45, label %46, label %47

46:                                               ; preds = %39
  store i32 256, ptr %10, align 4
  br label %83

47:                                               ; preds = %39
  %48 = load ptr, ptr %16, align 8
  %49 = load ptr, ptr %17, align 8
  %50 = icmp eq ptr %48, %49
  br i1 %50, label %51, label %65

51:                                               ; preds = %47
  %52 = load ptr, ptr %20, align 8
  %53 = getelementptr inbounds %struct.ReferrerData, ptr %52, i32 0, i32 4
  %54 = load i8, ptr %53, align 8
  %55 = zext i8 %54 to i32
  %56 = icmp eq i32 %55, 0
  br i1 %56, label %57, label %64

57:                                               ; preds = %51
  %58 = load ptr, ptr %20, align 8
  %59 = getelementptr inbounds %struct.ReferrerData, ptr %58, i32 0, i32 4
  store i8 1, ptr %59, align 8
  %60 = load ptr, ptr %20, align 8
  %61 = getelementptr inbounds %struct.ReferrerData, ptr %60, i32 0, i32 0
  %62 = load i32, ptr %61, align 8
  %63 = add nsw i32 %62, 1
  store i32 %63, ptr %61, align 8
  br label %64

64:                                               ; preds = %57, %51
  store i32 256, ptr %10, align 4
  br label %83

65:                                               ; preds = %47
  %66 = load ptr, ptr %17, align 8
  %67 = icmp ne ptr %66, null
  br i1 %67, label %68, label %82

68:                                               ; preds = %65
  %69 = load ptr, ptr %17, align 8
  %70 = load i64, ptr %69, align 8
  %71 = icmp eq i64 %70, 0
  br i1 %71, label %72, label %81

72:                                               ; preds = %68
  %73 = load ptr, ptr %20, align 8
  %74 = getelementptr inbounds %struct.ReferrerData, ptr %73, i32 0, i32 2
  %75 = load i64, ptr %74, align 8
  %76 = load ptr, ptr %17, align 8
  store i64 %75, ptr %76, align 8
  %77 = load ptr, ptr %20, align 8
  %78 = getelementptr inbounds %struct.ReferrerData, ptr %77, i32 0, i32 0
  %79 = load i32, ptr %78, align 8
  %80 = add nsw i32 %79, 1
  store i32 %80, ptr %78, align 8
  br label %81

81:                                               ; preds = %72, %68
  br label %82

82:                                               ; preds = %81, %65
  store i32 256, ptr %10, align 4
  br label %83

83:                                               ; preds = %82, %64, %46, %38, %24
  %84 = load i32, ptr %10, align 4
  ret i32 %84
}