; Function Attrs: mustprogress nofree norecurse nosync nounwind willreturn memory(argmem: readwrite) uwtable
define internal range(i32 256, 32769) i32 @cbObjectTagReferrer(i32 %0, ptr nocapture readnone %1, i64 %2, i64 %3, i64 %4, ptr noundef readonly %5, ptr noundef %6, i32 %7, ptr noundef %8) #8 {
  %10 = icmp eq ptr %8, null
  br i1 %10, label %36, label %11

11:                                               ; preds = %9
  %12 = getelementptr inbounds i8, ptr %8, i64 4
  %13 = load i32, ptr %12, align 4
  %.not = icmp eq i32 %13, 0
  br i1 %.not, label %16, label %14

14:                                               ; preds = %11
  %15 = load i32, ptr %8, align 8
  %.not20 = icmp slt i32 %15, %13
  br i1 %.not20, label %16, label %36

16:                                               ; preds = %14, %11
  %17 = load i64, ptr %5, align 8
  %18 = getelementptr inbounds i8, ptr %8, i64 16
  %19 = load i64, ptr %18, align 8
  %.not21 = icmp eq i64 %17, %19
  br i1 %.not21, label %20, label %36

20:                                               ; preds = %16
  %21 = icmp eq ptr %5, %6
  br i1 %21, label %22, label %27

22:                                               ; preds = %20
  %23 = getelementptr inbounds i8, ptr %8, i64 24
  %24 = load i8, ptr %23, align 8
  %25 = icmp eq i8 %24, 0
  br i1 %25, label %26, label %36

26:                                               ; preds = %22
  store i8 1, ptr %23, align 8
  br label %.sink.split

27:                                               ; preds = %20
  %.not22 = icmp eq ptr %6, null
  br i1 %.not22, label %36, label %28

28:                                               ; preds = %27
  %29 = load i64, ptr %6, align 8
  %30 = icmp eq i64 %29, 0
  br i1 %30, label %31, label %36

31:                                               ; preds = %28
  %32 = getelementptr inbounds i8, ptr %8, i64 8
  %33 = load i64, ptr %32, align 8
  store i64 %33, ptr %6, align 8
  br label %.sink.split

.sink.split:                                      ; preds = %26, %31
  %34 = load i32, ptr %8, align 8
  %35 = add nsw i32 %34, 1
  store i32 %35, ptr %8, align 8
  br label %36

36:                                               ; preds = %.sink.split, %27, %28, %22, %16, %14, %9
  %.0 = phi i32 [ 32768, %9 ], [ 32768, %14 ], [ 256, %16 ], [ 256, %22 ], [ 256, %28 ], [ 256, %27 ], [ 256, %.sink.split ]
  ret i32 %.0
}